; Function Attrs: nounwind uwtable
define void @validateMultiControls(ptr noundef readonly byval(%struct.Qureg) align 8 captures(none) %0, ptr noundef readonly captures(none) %1, i32 noundef %2, ptr noundef %3) local_unnamed_addr #3 {
  %.sroa.3.0..sroa_idx = getelementptr inbounds nuw i8, ptr %0, i64 4
  %.sroa.3.0.copyload = load i32, ptr %.sroa.3.0..sroa_idx, align 4
  %5 = icmp slt i32 %2, 1
  %6 = icmp sge i32 %2, %.sroa.3.0.copyload
  %.not3.i = select i1 %5, i1 true, i1 %6
  br i1 %.not3.i, label %validateNumControls.exit, label %.lr.ph.preheader

validateNumControls.exit:                         ; preds = %4
  tail call void @invalidQuESTInputError(ptr noundef nonnull @.str.23, ptr noundef %3)
  %7 = icmp sgt i32 %2, 0
  br i1 %7, label %.lr.ph.preheader, label %QuESTAssert.exit

.lr.ph.preheader:                                 ; preds = %4, %validateNumControls.exit
  %wide.trip.count = zext nneg i32 %2 to i64
  br label %.lr.ph

._crit_edge:                                      ; preds = %validateControl.exit
  br i1 %5, label %QuESTAssert.exit, label %.lr.ph.preheader.i

.lr.ph.preheader.i:                               ; preds = %._crit_edge
  %wide.trip.count.i = zext nneg i32 %2 to i64
  br label %.lr.ph.i

.lr.ph.i:                                         ; preds = %13, %.lr.ph.preheader.i
  %indvars.iv.i = phi i64 [ 0, %.lr.ph.preheader.i ], [ %indvars.iv.next.i, %13 ]
  %.01215.i = phi i64 [ 0, %.lr.ph.preheader.i ], [ %14, %13 ]
  %8 = getelementptr inbounds nuw i32, ptr %1, i64 %indvars.iv.i
  %9 = load i32, ptr %8, align 4, !tbaa !20
  %10 = zext nneg i32 %9 to i64
  %11 = shl nuw i64 1, %10
  %12 = and i64 %11, %.01215.i
  %.not.i = icmp eq i64 %12, 0
  br i1 %.not.i, label %13, label %areUniqueQubits.exit

13:                                               ; preds = %.lr.ph.i
  %14 = or i64 %11, %.01215.i
  %indvars.iv.next.i = add nuw nsw i64 %indvars.iv.i, 1
  %exitcond.not.i = icmp eq i64 %indvars.iv.next.i, %wide.trip.count.i
  br i1 %exitcond.not.i, label %QuESTAssert.exit, label %.lr.ph.i

areUniqueQubits.exit:                             ; preds = %.lr.ph.i
  tail call void @invalidQuESTInputError(ptr noundef nonnull @.str.20, ptr noundef %3)
  br label %QuESTAssert.exit

QuESTAssert.exit:                                 ; preds = %13, %validateNumControls.exit, %._crit_edge, %areUniqueQubits.exit
  ret void

.lr.ph:                                           ; preds = %.lr.ph.preheader, %validateControl.exit
  %indvars.iv = phi i64 [ 0, %.lr.ph.preheader ], [ %indvars.iv.next, %validateControl.exit ]
  %15 = getelementptr inbounds nuw i32, ptr %1, i64 %indvars.iv
  %16 = load i32, ptr %15, align 4, !tbaa !20
  %17 = icmp slt i32 %16, 0
  %18 = icmp sge i32 %16, %.sroa.3.0.copyload
  %.not3.i12 = select i1 %17, i1 true, i1 %18
  br i1 %.not3.i12, label %19, label %validateControl.exit

19:                                               ; preds = %.lr.ph
  tail call void @invalidQuESTInputError(ptr noundef nonnull @.str.7, ptr noundef %3)
  br label %validateControl.exit

validateControl.exit:                             ; preds = %.lr.ph, %19
  %indvars.iv.next = add nuw nsw i64 %indvars.iv, 1
  %exitcond.not = icmp eq i64 %indvars.iv.next, %wide.trip.count
  br i1 %exitcond.not, label %._crit_edge, label %.lr.ph
}